target datalayout = "e-m:e-p270:32:32-p271:32:32-p272:64:64-i64:64-i128:128-f80:128-n8:16:32:64-S128"
target triple = "x86_64-pc-linux-gnu"

%struct.Expr = type { i32 }
%struct.Aggref = type { %struct.Expr, i32, i32, i32, i32, i32, ptr, ptr, ptr, ptr, ptr, ptr, i8, i8, i8, i8, i32, i32, i32, i32, i32 }

; Function Attrs: nounwind uwtable
define dso_local void @mark_partial_aggref(ptr noundef %0, i32 noundef %1) #0 {
  %3 = alloca ptr, align 8
  %4 = alloca i32, align 4
  store ptr %0, ptr %3, align 8
  store i32 %1, ptr %4, align 4
  %5 = load i32, ptr %4, align 4
  %6 = load ptr, ptr %3, align 8
  %7 = getelementptr inbounds nuw %struct.Aggref, ptr %6, i32 0, i32 17
  store i32 %5, ptr %7, align 8
  %8 = load i32, ptr %4, align 4
  %9 = and i32 %8, 2
  %10 = icmp ne i32 %9, 0
  br i1 %10, label %11, label %30

11:                                               ; preds = %2
  %12 = load ptr, ptr %3, align 8
  %13 = getelementptr inbounds nuw %struct.Aggref, ptr %12, i32 0, i32 5
  %14 = load i32, ptr %13, align 4
  %15 = icmp eq i32 %14, 2281
  br i1 %15, label %16, label %23

16:                                               ; preds = %11
  %17 = load i32, ptr %4, align 4
  %18 = and i32 %17, 4
  %19 = icmp ne i32 %18, 0
  br i1 %19, label %20, label %23

20:                                               ; preds = %16
  %21 = load ptr, ptr %3, align 8
  %22 = getelementptr inbounds nuw %struct.Aggref, ptr %21, i32 0, i32 2
  store i32 17, ptr %22, align 8
  br label %29

23:                                               ; preds = %16, %11
  %24 = load ptr, ptr %3, align 8
  %25 = getelementptr inbounds nuw %struct.Aggref, ptr %24, i32 0, i32 5
  %26 = load i32, ptr %25, align 4
  %27 = load ptr, ptr %3, align 8
  %28 = getelementptr inbounds nuw %struct.Aggref, ptr %27, i32 0, i32 2
  store i32 %26, ptr %28, align 8
  br label %29

29:                                               ; preds = %23, %20
  br label %30

30:                                               ; preds = %29, %2
  ret void
}