; Function Attrs: mustprogress nofree norecurse nosync nounwind willreturn memory(argmem: readwrite) uwtable
define dso_local void @mark_partial_aggref(ptr noundef captures(none) initializes((80, 84)) %0, i32 noundef %1) local_unnamed_addr #7 {
  %3 = getelementptr inbounds nuw i8, ptr %0, i64 80
  store i32 %1, ptr %3, align 8
  %4 = and i32 %1, 2
  %.not = icmp eq i32 %4, 0
  br i1 %.not, label %10, label %.sink.split

.sink.split:                                      ; preds = %2
  %5 = getelementptr inbounds nuw i8, ptr %0, i64 20
  %6 = load i32, ptr %5, align 4
  %7 = icmp ne i32 %6, 2281
  %8 = and i32 %1, 4
  %.not7 = icmp eq i32 %8, 0
  %or.cond = or i1 %.not7, %7
  %9 = getelementptr inbounds nuw i8, ptr %0, i64 8
  %. = select i1 %or.cond, i32 %6, i32 17
  store i32 %., ptr %9, align 8
  br label %10

10:                                               ; preds = %.sink.split, %2
  ret void
}